; Function Attrs: uwtable
define void @_ZThn16_N3gmx30AnalysisDataDisplacementModule12dataFinishedEv(ptr noundef %0) unnamed_addr #5 align 2 {
  %2 = getelementptr inbounds i8, ptr %0, i64 8
  %3 = load ptr, ptr %2, align 8
  %4 = getelementptr inbounds i8, ptr %3, i64 36
  %5 = load i32, ptr %4, align 4
  %6 = icmp sgt i32 %5, 1
  br i1 %6, label %7, label %_ZN3gmx30AnalysisDataDisplacementModule12dataFinishedEv.exit

7:                                                ; preds = %1
  %8 = getelementptr inbounds i8, ptr %0, i64 -16
  %9 = tail call noundef nonnull align 8 dereferenceable(8) ptr @_ZN3gmx20AbstractAnalysisData13moduleManagerEv(ptr noundef nonnull align 8 dereferenceable(16) %8)
  tail call void @_ZNK3gmx25AnalysisDataModuleManager16notifyDataFinishEv(ptr noundef nonnull align 8 dereferenceable(8) %9)
  br label %_ZN3gmx30AnalysisDataDisplacementModule12dataFinishedEv.exit

_ZN3gmx30AnalysisDataDisplacementModule12dataFinishedEv.exit: ; preds = %1, %7
  ret void
}